SF:/Users/carter/code/truffle/scyllax/example/src/entities/person/model.rs
FN:7,_RNCNvXs0_NtNtNtCsiJDhNGE6fKP_7example8entities6person5modelNtB7_12PersonEntityNtNtNtNtCs1vFd3eqb2Fl_10scylla_cql5frame8response11cql_to_rust7FromRow8from_row0Bd_
FN:5,_RNvXNtNtNtCsiJDhNGE6fKP_7example8entities6person5modelNtB2_12PersonEntityNtNtCs98dpJn7v43e_4core5clone5Clone5cloneB8_
FN:14,_RNCNvXs0_NtNtNtCsiJDhNGE6fKP_7example8entities6person5modelNtB7_12PersonEntityNtNtNtNtCs1vFd3eqb2Fl_10scylla_cql5frame8response11cql_to_rust7FromRow8from_rows1_0Bd_
FN:5,_RNvXs3_NtNtNtCsiJDhNGE6fKP_7example8entities6person5modelNtB5_12PersonEntityNtNtNtCs1vFd3eqb2Fl_10scylla_cql5frame5value9ValueList10serialized
FN:4,_RNvXs5_NtNtNtCsiJDhNGE6fKP_7example8entities6person5modelNtB5_12UpsertPersonNtNtCs98dpJn7v43e_4core3fmt5Debug3fmt
FN:5,_RNvXs0_NtNtNtCsiJDhNGE6fKP_7example8entities6person5modelNtB5_12PersonEntityNtNtNtNtCs1vFd3eqb2Fl_10scylla_cql5frame8response11cql_to_rust7FromRow8from_row
FN:4,_RNvXs7_NtNtNtCsiJDhNGE6fKP_7example8entities6person5modelNtB5_12UpsertPersonINtCsjHYBtjM0K64_7scyllax11UpsertQueryNtB5_12PersonEntityE7execute
FN:4,_RNCNvXs7_NtNtNtCsiJDhNGE6fKP_7example8entities6person5modelNtB7_12UpsertPersonINtCsjHYBtjM0K64_7scyllax11UpsertQueryNtB7_12PersonEntityE7execute0Bd_
FN:4,_RNCNCNvXs7_NtNtNtCsiJDhNGE6fKP_7example8entities6person5modelNtB9_12UpsertPersonINtCsjHYBtjM0K64_7scyllax11UpsertQueryNtB9_12PersonEntityE7execute00Bf_
FN:12,_RNCNvXs0_NtNtNtCsiJDhNGE6fKP_7example8entities6person5modelNtB7_12PersonEntityNtNtNtNtCs1vFd3eqb2Fl_10scylla_cql5frame8response11cql_to_rust7FromRow8from_rows0_0Bd_
FN:5,_RNvXs2_NtNtNtCsiJDhNGE6fKP_7example8entities6person5modelNtB5_12PersonEntityNtNtCs98dpJn7v43e_4core3cmp9PartialEq2eqBb_
FN:5,_RNvXs4_NtNtNtCsiJDhNGE6fKP_7example8entities6person5modelNtB5_12PersonEntityINtCsjHYBtjM0K64_7scyllax9EntityExtBT_E3pks
FN:4,_RNvXs7_NtNtNtCsiJDhNGE6fKP_7example8entities6person5modelNtB5_12UpsertPersonINtCsjHYBtjM0K64_7scyllax11UpsertQueryNtB5_12PersonEntityE5query
FN:5,_RNvXs_NtNtNtCsiJDhNGE6fKP_7example8entities6person5modelNtB4_12PersonEntityNtNtCs98dpJn7v43e_4core3fmt5Debug3fmt
FN:10,_RNCNvXs0_NtNtNtCsiJDhNGE6fKP_7example8entities6person5modelNtB7_12PersonEntityNtNtNtNtCs1vFd3eqb2Fl_10scylla_cql5frame8response11cql_to_rust7FromRow8from_rows_0Bd_
FN:5,_RNvXs4_NtNtNtCsiJDhNGE6fKP_7example8entities6person5modelNtB5_12PersonEntityINtCsjHYBtjM0K64_7scyllax9EntityExtBT_E4keys
FN:4,_RNvXs6_NtNtNtCsiJDhNGE6fKP_7example8entities6person5modelNtB5_12UpsertPersonNtNtCs98dpJn7v43e_4core5clone5Clone5cloneBb_
FN:4,_RNCNCNvXs7_NtNtNtCsiJDhNGE6fKP_7example8entities6person5modelNtB9_12UpsertPersonINtCsjHYBtjM0K64_7scyllax11UpsertQueryNtB9_12PersonEntityE7execute0s_0Bf_
FNDA:0,_RNCNvXs0_NtNtNtCsiJDhNGE6fKP_7example8entities6person5modelNtB7_12PersonEntityNtNtNtNtCs1vFd3eqb2Fl_10scylla_cql5frame8response11cql_to_rust7FromRow8from_row0Bd_
FNDA:0,_RNvXNtNtNtCsiJDhNGE6fKP_7example8entities6person5modelNtB2_12PersonEntityNtNtCs98dpJn7v43e_4core5clone5Clone5cloneB8_
FNDA:0,_RNCNvXs0_NtNtNtCsiJDhNGE6fKP_7example8entities6person5modelNtB7_12PersonEntityNtNtNtNtCs1vFd3eqb2Fl_10scylla_cql5frame8response11cql_to_rust7FromRow8from_rows1_0Bd_
FNDA:0,_RNvXs3_NtNtNtCsiJDhNGE6fKP_7example8entities6person5modelNtB5_12PersonEntityNtNtNtCs1vFd3eqb2Fl_10scylla_cql5frame5value9ValueList10serialized
FNDA:0,_RNvXs5_NtNtNtCsiJDhNGE6fKP_7example8entities6person5modelNtB5_12UpsertPersonNtNtCs98dpJn7v43e_4core3fmt5Debug3fmt
FNDA:0,_RNvXs0_NtNtNtCsiJDhNGE6fKP_7example8entities6person5modelNtB5_12PersonEntityNtNtNtNtCs1vFd3eqb2Fl_10scylla_cql5frame8response11cql_to_rust7FromRow8from_row
FNDA:0,_RNvXs7_NtNtNtCsiJDhNGE6fKP_7example8entities6person5modelNtB5_12UpsertPersonINtCsjHYBtjM0K64_7scyllax11UpsertQueryNtB5_12PersonEntityE7execute
FNDA:0,_RNCNvXs7_NtNtNtCsiJDhNGE6fKP_7example8entities6person5modelNtB7_12UpsertPersonINtCsjHYBtjM0K64_7scyllax11UpsertQueryNtB7_12PersonEntityE7execute0Bd_
FNDA:0,_RNCNCNvXs7_NtNtNtCsiJDhNGE6fKP_7example8entities6person5modelNtB9_12UpsertPersonINtCsjHYBtjM0K64_7scyllax11UpsertQueryNtB9_12PersonEntityE7execute00Bf_
FNDA:0,_RNCNvXs0_NtNtNtCsiJDhNGE6fKP_7example8entities6person5modelNtB7_12PersonEntityNtNtNtNtCs1vFd3eqb2Fl_10scylla_cql5frame8response11cql_to_rust7FromRow8from_rows0_0Bd_
FNDA:0,_RNvXs2_NtNtNtCsiJDhNGE6fKP_7example8entities6person5modelNtB5_12PersonEntityNtNtCs98dpJn7v43e_4core3cmp9PartialEq2eqBb_
FNDA:0,_RNvXs4_NtNtNtCsiJDhNGE6fKP_7example8entities6person5modelNtB5_12PersonEntityINtCsjHYBtjM0K64_7scyllax9EntityExtBT_E3pks
FNDA:0,_RNvXs7_NtNtNtCsiJDhNGE6fKP_7example8entities6person5modelNtB5_12UpsertPersonINtCsjHYBtjM0K64_7scyllax11UpsertQueryNtB5_12PersonEntityE5query
FNDA:0,_RNvXs_NtNtNtCsiJDhNGE6fKP_7example8entities6person5modelNtB4_12PersonEntityNtNtCs98dpJn7v43e_4core3fmt5Debug3fmt
FNDA:0,_RNCNvXs0_NtNtNtCsiJDhNGE6fKP_7example8entities6person5modelNtB7_12PersonEntityNtNtNtNtCs1vFd3eqb2Fl_10scylla_cql5frame8response11cql_to_rust7FromRow8from_rows_0Bd_
FNDA:0,_RNvXs4_NtNtNtCsiJDhNGE6fKP_7example8entities6person5modelNtB5_12PersonEntityINtCsjHYBtjM0K64_7scyllax9EntityExtBT_E4keys
FNDA:0,_RNvXs6_NtNtNtCsiJDhNGE6fKP_7example8entities6person5modelNtB5_12UpsertPersonNtNtCs98dpJn7v43e_4core5clone5Clone5cloneBb_
FNDA:0,_RNCNCNvXs7_NtNtNtCsiJDhNGE6fKP_7example8entities6person5modelNtB9_12UpsertPersonINtCsjHYBtjM0K64_7scyllax11UpsertQueryNtB9_12PersonEntityE7execute0s_0Bf_
FNF:11
FNH:0
DA:4,0
DA:5,0
DA:7,0
DA:10,0
DA:12,0
DA:14,0
BRF:0
BRH:0
LF:11
LH:0
end_of_record
SF:/Users/carter/code/truffle/scyllax/example/src/entities/person/queries.rs
FN:13,_RNvXNtNtNtCsiJDhNGE6fKP_7example8entities6person7queriesNtB2_13GetPersonByIdNtNtNtCs1vFd3eqb2Fl_10scylla_cql5frame5value9ValueList10serialized
FN:13,_RINvXs3_NtNtNtCsiJDhNGE6fKP_7example8entities6person7queriesNtB6_13GetPersonByIdNtNtCs98dpJn7v43e_4core4hash4Hash4hashpEBc_
FN:13,_RNCNvXs4_NtNtNtCsiJDhNGE6fKP_7example8entities6person7queriesNtB7_13GetPersonByIdINtCsjHYBtjM0K64_7scyllax11SelectQueryNtNtB9_5model12PersonEntityINtNtCs98dpJn7v43e_4core6option6OptionB1T_EE7execute0Bd_
FN:13,_RNCNvXs4_NtNtNtCsiJDhNGE6fKP_7example8entities6person7queriesNtB7_13GetPersonByIdINtCsjHYBtjM0K64_7scyllax11SelectQueryNtNtB9_5model12PersonEntityINtNtCs98dpJn7v43e_4core6option6OptionB1T_EE7prepare0Bd_
FN:13,_RNCNvXs4_NtNtNtCsiJDhNGE6fKP_7example8entities6person7queriesNtB7_13GetPersonByIdINtCsjHYBtjM0K64_7scyllax11SelectQueryNtNtB9_5model12PersonEntityINtNtCs98dpJn7v43e_4core6option6OptionB1T_EE14parse_response0Bd_
FN:13,_RNvXs4_NtNtNtCsiJDhNGE6fKP_7example8entities6person7queriesNtB5_13GetPersonByIdINtCsjHYBtjM0K64_7scyllax11SelectQueryNtNtB7_5model12PersonEntityINtNtCs98dpJn7v43e_4core6option6OptionB1R_EE5query
FN:13,_RNCNCNvXs4_NtNtNtCsiJDhNGE6fKP_7example8entities6person7queriesNtB9_13GetPersonByIdINtCsjHYBtjM0K64_7scyllax11SelectQueryNtNtBb_5model12PersonEntityINtNtCs98dpJn7v43e_4core6option6OptionB1V_EE7execute00Bf_
FN:23,_RNvXs7_NtNtNtCsiJDhNGE6fKP_7example8entities6person7queriesNtB5_16GetPersonByEmailNtNtCs98dpJn7v43e_4core5clone5Clone5cloneBb_
FN:23,_RNCNCNvXsb_NtNtNtCsiJDhNGE6fKP_7example8entities6person7queriesNtB9_16GetPersonByEmailINtCsjHYBtjM0K64_7scyllax11SelectQueryNtNtBb_5model12PersonEntityINtNtCs98dpJn7v43e_4core6option6OptionB1Y_EE7prepare00Bf_
FN:23,_RNvXsb_NtNtNtCsiJDhNGE6fKP_7example8entities6person7queriesNtB5_16GetPersonByEmailINtCsjHYBtjM0K64_7scyllax11SelectQueryNtNtB7_5model12PersonEntityINtNtCs98dpJn7v43e_4core6option6OptionB1U_EE7execute
FN:5,_RNvNtNtNtCsiJDhNGE6fKP_7example8entities6person7queries4load
FN:13,_RNCNCNvXs4_NtNtNtCsiJDhNGE6fKP_7example8entities6person7queriesNtB9_13GetPersonByIdINtCsjHYBtjM0K64_7scyllax11SelectQueryNtNtBb_5model12PersonEntityINtNtCs98dpJn7v43e_4core6option6OptionB1V_EE7prepare00Bf_
FN:23,_RNvXs6_NtNtNtCsiJDhNGE6fKP_7example8entities6person7queriesNtB5_16GetPersonByEmailNtNtCs98dpJn7v43e_4core3fmt5Debug3fmt
FN:13,_RNvXs0_NtNtNtCsiJDhNGE6fKP_7example8entities6person7queriesNtB5_13GetPersonByIdNtNtCs98dpJn7v43e_4core5clone5Clone5cloneBb_
FN:13,_RNCNCNvXs4_NtNtNtCsiJDhNGE6fKP_7example8entities6person7queriesNtB9_13GetPersonByIdINtCsjHYBtjM0K64_7scyllax11SelectQueryNtNtBb_5model12PersonEntityINtNtCs98dpJn7v43e_4core6option6OptionB1V_EE14parse_response00Bf_
FN:23,_RINvXsa_NtNtNtCsiJDhNGE6fKP_7example8entities6person7queriesNtB6_16GetPersonByEmailNtNtCs98dpJn7v43e_4core4hash4Hash4hashpEBc_
FN:23,_RNCNvXsb_NtNtNtCsiJDhNGE6fKP_7example8entities6person7queriesNtB7_16GetPersonByEmailINtCsjHYBtjM0K64_7scyllax11SelectQueryNtNtB9_5model12PersonEntityINtNtCs98dpJn7v43e_4core6option6OptionB1W_EE7execute0Bd_
FN:5,_RNCNvNtNtNtCsiJDhNGE6fKP_7example8entities6person7queries4load0B9_
FN:13,_RNvXs4_NtNtNtCsiJDhNGE6fKP_7example8entities6person7queriesNtB5_13GetPersonByIdINtCsjHYBtjM0K64_7scyllax11SelectQueryNtNtB7_5model12PersonEntityINtNtCs98dpJn7v43e_4core6option6OptionB1R_EE7execute
FN:23,_RNvXsb_NtNtNtCsiJDhNGE6fKP_7example8entities6person7queriesNtB5_16GetPersonByEmailINtCsjHYBtjM0K64_7scyllax11SelectQueryNtNtB7_5model12PersonEntityINtNtCs98dpJn7v43e_4core6option6OptionB1U_EE14parse_response
FN:13,_RNvXs_NtNtNtCsiJDhNGE6fKP_7example8entities6person7queriesNtB4_13GetPersonByIdNtNtCs98dpJn7v43e_4core3fmt5Debug3fmt
FN:23,_RNvXs9_NtNtNtCsiJDhNGE6fKP_7example8entities6person7queriesNtB5_16GetPersonByEmailNtNtCs98dpJn7v43e_4core3cmp9PartialEq2eqBb_
FN:23,_RNCNCNvXsb_NtNtNtCsiJDhNGE6fKP_7example8entities6person7queriesNtB9_16GetPersonByEmailINtCsjHYBtjM0K64_7scyllax11SelectQueryNtNtBb_5model12PersonEntityINtNtCs98dpJn7v43e_4core6option6OptionB1Y_EE14parse_response00Bf_
FN:23,_RNCNvXsb_NtNtNtCsiJDhNGE6fKP_7example8entities6person7queriesNtB7_16GetPersonByEmailINtCsjHYBtjM0K64_7scyllax11SelectQueryNtNtB9_5model12PersonEntityINtNtCs98dpJn7v43e_4core6option6OptionB1W_EE7prepare0Bd_
FN:13,_RNvXs2_NtNtNtCsiJDhNGE6fKP_7example8entities6person7queriesNtB5_13GetPersonByIdNtNtCs98dpJn7v43e_4core3cmp9PartialEq2eqBb_
FN:23,_RNCNvXsb_NtNtNtCsiJDhNGE6fKP_7example8entities6person7queriesNtB7_16GetPersonByEmailINtCsjHYBtjM0K64_7scyllax11SelectQueryNtNtB9_5model12PersonEntityINtNtCs98dpJn7v43e_4core6option6OptionB1W_EE14parse_response0Bd_
FN:23,_RNvXs5_NtNtNtCsiJDhNGE6fKP_7example8entities6person7queriesNtB5_16GetPersonByEmailNtNtNtCs1vFd3eqb2Fl_10scylla_cql5frame5value9ValueList10serialized
FN:23,_RNCNCNvXsb_NtNtNtCsiJDhNGE6fKP_7example8entities6person7queriesNtB9_16GetPersonByEmailINtCsjHYBtjM0K64_7scyllax11SelectQueryNtNtBb_5model12PersonEntityINtNtCs98dpJn7v43e_4core6option6OptionB1Y_EE7execute00Bf_
FN:23,_RNvXsb_NtNtNtCsiJDhNGE6fKP_7example8entities6person7queriesNtB5_16GetPersonByEmailINtCsjHYBtjM0K64_7scyllax11SelectQueryNtNtB7_5model12PersonEntityINtNtCs98dpJn7v43e_4core6option6OptionB1U_EE5query
FN:13,_RNvXs4_NtNtNtCsiJDhNGE6fKP_7example8entities6person7queriesNtB5_13GetPersonByIdINtCsjHYBtjM0K64_7scyllax11SelectQueryNtNtB7_5model12PersonEntityINtNtCs98dpJn7v43e_4core6option6OptionB1R_EE14parse_response
FN:5,_RNCNCNvNtNtNtCsiJDhNGE6fKP_7example8entities6person7queries4load00Bb_
FNDA:0,_RNvXNtNtNtCsiJDhNGE6fKP_7example8entities6person7queriesNtB2_13GetPersonByIdNtNtNtCs1vFd3eqb2Fl_10scylla_cql5frame5value9ValueList10serialized
FNDA:0,_RINvXs3_NtNtNtCsiJDhNGE6fKP_7example8entities6person7queriesNtB6_13GetPersonByIdNtNtCs98dpJn7v43e_4core4hash4Hash4hashpEBc_
FNDA:0,_RNCNvXs4_NtNtNtCsiJDhNGE6fKP_7example8entities6person7queriesNtB7_13GetPersonByIdINtCsjHYBtjM0K64_7scyllax11SelectQueryNtNtB9_5model12PersonEntityINtNtCs98dpJn7v43e_4core6option6OptionB1T_EE7execute0Bd_
FNDA:0,_RNCNvXs4_NtNtNtCsiJDhNGE6fKP_7example8entities6person7queriesNtB7_13GetPersonByIdINtCsjHYBtjM0K64_7scyllax11SelectQueryNtNtB9_5model12PersonEntityINtNtCs98dpJn7v43e_4core6option6OptionB1T_EE7prepare0Bd_
FNDA:0,_RNCNvXs4_NtNtNtCsiJDhNGE6fKP_7example8entities6person7queriesNtB7_13GetPersonByIdINtCsjHYBtjM0K64_7scyllax11SelectQueryNtNtB9_5model12PersonEntityINtNtCs98dpJn7v43e_4core6option6OptionB1T_EE14parse_response0Bd_
FNDA:0,_RNvXs4_NtNtNtCsiJDhNGE6fKP_7example8entities6person7queriesNtB5_13GetPersonByIdINtCsjHYBtjM0K64_7scyllax11SelectQueryNtNtB7_5model12PersonEntityINtNtCs98dpJn7v43e_4core6option6OptionB1R_EE5query
FNDA:0,_RNCNCNvXs4_NtNtNtCsiJDhNGE6fKP_7example8entities6person7queriesNtB9_13GetPersonByIdINtCsjHYBtjM0K64_7scyllax11SelectQueryNtNtBb_5model12PersonEntityINtNtCs98dpJn7v43e_4core6option6OptionB1V_EE7execute00Bf_
FNDA:0,_RNvXs7_NtNtNtCsiJDhNGE6fKP_7example8entities6person7queriesNtB5_16GetPersonByEmailNtNtCs98dpJn7v43e_4core5clone5Clone5cloneBb_
FNDA:0,_RNCNCNvXsb_NtNtNtCsiJDhNGE6fKP_7example8entities6person7queriesNtB9_16GetPersonByEmailINtCsjHYBtjM0K64_7scyllax11SelectQueryNtNtBb_5model12PersonEntityINtNtCs98dpJn7v43e_4core6option6OptionB1Y_EE7prepare00Bf_
FNDA:0,_RNvXsb_NtNtNtCsiJDhNGE6fKP_7example8entities6person7queriesNtB5_16GetPersonByEmailINtCsjHYBtjM0K64_7scyllax11SelectQueryNtNtB7_5model12PersonEntityINtNtCs98dpJn7v43e_4core6option6OptionB1U_EE7execute
FNDA:0,_RNvNtNtNtCsiJDhNGE6fKP_7example8entities6person7queries4load
FNDA:0,_RNCNCNvXs4_NtNtNtCsiJDhNGE6fKP_7example8entities6person7queriesNtB9_13GetPersonByIdINtCsjHYBtjM0K64_7scyllax11SelectQueryNtNtBb_5model12PersonEntityINtNtCs98dpJn7v43e_4core6option6OptionB1V_EE7prepare00Bf_
FNDA:0,_RNvXs6_NtNtNtCsiJDhNGE6fKP_7example8entities6person7queriesNtB5_16GetPersonByEmailNtNtCs98dpJn7v43e_4core3fmt5Debug3fmt
FNDA:0,_RNvXs0_NtNtNtCsiJDhNGE6fKP_7example8entities6person7queriesNtB5_13GetPersonByIdNtNtCs98dpJn7v43e_4core5clone5Clone5cloneBb_
FNDA:0,_RNCNCNvXs4_NtNtNtCsiJDhNGE6fKP_7example8entities6person7queriesNtB9_13GetPersonByIdINtCsjHYBtjM0K64_7scyllax11SelectQueryNtNtBb_5model12PersonEntityINtNtCs98dpJn7v43e_4core6option6OptionB1V_EE14parse_response00Bf_
FNDA:0,_RINvXsa_NtNtNtCsiJDhNGE6fKP_7example8entities6person7queriesNtB6_16GetPersonByEmailNtNtCs98dpJn7v43e_4core4hash4Hash4hashpEBc_
FNDA:0,_RNCNvXsb_NtNtNtCsiJDhNGE6fKP_7example8entities6person7queriesNtB7_16GetPersonByEmailINtCsjHYBtjM0K64_7scyllax11SelectQueryNtNtB9_5model12PersonEntityINtNtCs98dpJn7v43e_4core6option6OptionB1W_EE7execute0Bd_
FNDA:0,_RNCNvNtNtNtCsiJDhNGE6fKP_7example8entities6person7queries4load0B9_
FNDA:0,_RNvXs4_NtNtNtCsiJDhNGE6fKP_7example8entities6person7queriesNtB5_13GetPersonByIdINtCsjHYBtjM0K64_7scyllax11SelectQueryNtNtB7_5model12PersonEntityINtNtCs98dpJn7v43e_4core6option6OptionB1R_EE7execute
FNDA:0,_RNvXsb_NtNtNtCsiJDhNGE6fKP_7example8entities6person7queriesNtB5_16GetPersonByEmailINtCsjHYBtjM0K64_7scyllax11SelectQueryNtNtB7_5model12PersonEntityINtNtCs98dpJn7v43e_4core6option6OptionB1U_EE14parse_response
FNDA:0,_RNvXs_NtNtNtCsiJDhNGE6fKP_7example8entities6person7queriesNtB4_13GetPersonByIdNtNtCs98dpJn7v43e_4core3fmt5Debug3fmt
FNDA:0,_RNvXs9_NtNtNtCsiJDhNGE6fKP_7example8entities6person7queriesNtB5_16GetPersonByEmailNtNtCs98dpJn7v43e_4core3cmp9PartialEq2eqBb_
FNDA:0,_RNCNCNvXsb_NtNtNtCsiJDhNGE6fKP_7example8entities6person7queriesNtB9_16GetPersonByEmailINtCsjHYBtjM0K64_7scyllax11SelectQueryNtNtBb_5model12PersonEntityINtNtCs98dpJn7v43e_4core6option6OptionB1Y_EE14parse_response00Bf_
FNDA:0,_RNCNvXsb_NtNtNtCsiJDhNGE6fKP_7example8entities6person7queriesNtB7_16GetPersonByEmailINtCsjHYBtjM0K64_7scyllax11SelectQueryNtNtB9_5model12PersonEntityINtNtCs98dpJn7v43e_4core6option6OptionB1W_EE7prepare0Bd_
FNDA:0,_RNvXs2_NtNtNtCsiJDhNGE6fKP_7example8entities6person7queriesNtB5_13GetPersonByIdNtNtCs98dpJn7v43e_4core3cmp9PartialEq2eqBb_
FNDA:0,_RNCNvXsb_NtNtNtCsiJDhNGE6fKP_7example8entities6person7queriesNtB7_16GetPersonByEmailINtCsjHYBtjM0K64_7scyllax11SelectQueryNtNtB9_5model12PersonEntityINtNtCs98dpJn7v43e_4core6option6OptionB1W_EE14parse_response0Bd_
FNDA:0,_RNvXs5_NtNtNtCsiJDhNGE6fKP_7example8entities6person7queriesNtB5_16GetPersonByEmailNtNtNtCs1vFd3eqb2Fl_10scylla_cql5frame5value9ValueList10serialized
FNDA:0,_RNCNCNvXsb_NtNtNtCsiJDhNGE6fKP_7example8entities6person7queriesNtB9_16GetPersonByEmailINtCsjHYBtjM0K64_7scyllax11SelectQueryNtNtBb_5model12PersonEntityINtNtCs98dpJn7v43e_4core6option6OptionB1Y_EE7execute00Bf_
FNDA:0,_RNvXsb_NtNtNtCsiJDhNGE6fKP_7example8entities6person7queriesNtB5_16GetPersonByEmailINtCsjHYBtjM0K64_7scyllax11SelectQueryNtNtB7_5model12PersonEntityINtNtCs98dpJn7v43e_4core6option6OptionB1U_EE5query
FNDA:0,_RNvXs4_NtNtNtCsiJDhNGE6fKP_7example8entities6person7queriesNtB5_13GetPersonByIdINtCsjHYBtjM0K64_7scyllax11SelectQueryNtNtB7_5model12PersonEntityINtNtCs98dpJn7v43e_4core6option6OptionB1R_EE14parse_response
FNDA:0,_RNCNCNvNtNtNtCsiJDhNGE6fKP_7example8entities6person7queries4load00Bb_
FNF:3
FNH:0
DA:5,0
DA:13,0
DA:14,0
DA:15,0
DA:16,0
DA:23,0
DA:24,0
DA:25,0
DA:26,0
BRF:0
BRH:0
LF:9
LH:0
end_of_record
SF:/Users/carter/code/truffle/scyllax/example/src/main.rs
FN:13,_RNvCsiJDhNGE6fKP_7example4main
FN:51,_RNCNCNvCsiJDhNGE6fKP_7example4main0s1_0B5_
FN:13,_RNCNvCsiJDhNGE6fKP_7example4main0B3_
FN:40,_RNCNCNvCsiJDhNGE6fKP_7example4main0s0_0B5_
FN:19,_RNCNCNvCsiJDhNGE6fKP_7example4main00B5_
FN:33,_RNCNCNvCsiJDhNGE6fKP_7example4main0s_0B5_
FNDA:0,_RNvCsiJDhNGE6fKP_7example4main
FNDA:0,_RNCNCNvCsiJDhNGE6fKP_7example4main0s1_0B5_
FNDA:0,_RNCNvCsiJDhNGE6fKP_7example4main0B3_
FNDA:0,_RNCNCNvCsiJDhNGE6fKP_7example4main0s0_0B5_
FNDA:0,_RNCNCNvCsiJDhNGE6fKP_7example4main00B5_
FNDA:0,_RNCNCNvCsiJDhNGE6fKP_7example4main0s_0B5_
FNF:6
FNH:0
DA:13,0
DA:14,0
DA:15,0
DA:16,0
DA:17,0
DA:18,0
DA:19,0
DA:20,0
DA:21,0
DA:23,0
DA:24,0
DA:25,0
DA:26,0
DA:27,0
DA:28,0
DA:29,0
DA:30,0
DA:31,0
DA:32,0
DA:33,0
DA:35,0
DA:36,0
DA:37,0
DA:38,0
DA:39,0
DA:40,0
DA:42,0
DA:44,0
DA:45,0
DA:46,0
DA:47,0
DA:48,0
DA:49,0
DA:50,0
DA:51,0
DA:53,0
BRF:0
BRH:0
LF:41
LH:0
end_of_record
SF:/Users/carter/code/truffle/scyllax/scyllax-macros/src/entity.rs
FN:8,_RNvNtCskthA8rZP1pE_14scyllax_macros6entity6expand
FN:58,_RNvNtCskthA8rZP1pE_14scyllax_macros6entity14get_field_name
FN:35,_RNvNtCskthA8rZP1pE_14scyllax_macros6entity11entity_impl
FN:18,_RNCNCNvNtCskthA8rZP1pE_14scyllax_macros6entity6expand00B7_
FN:18,_RNCNvNtCskthA8rZP1pE_14scyllax_macros6entity6expand0B5_
FN:59,_RNCNvNtCskthA8rZP1pE_14scyllax_macros6entity14get_field_name0B5_
FN:39,_RNCNvNtCskthA8rZP1pE_14scyllax_macros6entity11entity_impl0B5_
FN:18,_RNCNvNtCs6NFTJUEwuvu_14scyllax_macros6entity6expand0B5_
FN:18,_RNCNCNvNtCs6NFTJUEwuvu_14scyllax_macros6entity6expand00B7_
FN:39,_RNCNvNtCs6NFTJUEwuvu_14scyllax_macros6entity11entity_impl0B5_
FN:8,_RNvNtCs6NFTJUEwuvu_14scyllax_macros6entity6expand
FN:35,_RNvNtCs6NFTJUEwuvu_14scyllax_macros6entity11entity_impl
FN:58,_RNvNtCs6NFTJUEwuvu_14scyllax_macros6entity14get_field_name
FN:59,_RNCNvNtCs6NFTJUEwuvu_14scyllax_macros6entity14get_field_name0B5_
FNDA:1,_RNvNtCskthA8rZP1pE_14scyllax_macros6entity6expand
FNDA:9,_RNvNtCskthA8rZP1pE_14scyllax_macros6entity14get_field_name
FNDA:1,_RNvNtCskthA8rZP1pE_14scyllax_macros6entity11entity_impl
FNDA:6,_RNCNCNvNtCskthA8rZP1pE_14scyllax_macros6entity6expand00B7_
FNDA:4,_RNCNvNtCskthA8rZP1pE_14scyllax_macros6entity6expand0B5_
FNDA:14,_RNCNvNtCskthA8rZP1pE_14scyllax_macros6entity14get_field_name0B5_
FNDA:1,_RNCNvNtCskthA8rZP1pE_14scyllax_macros6entity11entity_impl0B5_
FNDA:0,_RNCNvNtCs6NFTJUEwuvu_14scyllax_macros6entity6expand0B5_
FNDA:0,_RNCNCNvNtCs6NFTJUEwuvu_14scyllax_macros6entity6expand00B7_
FNDA:0,_RNCNvNtCs6NFTJUEwuvu_14scyllax_macros6entity11entity_impl0B5_
FNDA:0,_RNvNtCs6NFTJUEwuvu_14scyllax_macros6entity6expand
FNDA:0,_RNvNtCs6NFTJUEwuvu_14scyllax_macros6entity11entity_impl
FNDA:0,_RNvNtCs6NFTJUEwuvu_14scyllax_macros6entity14get_field_name
FNDA:0,_RNCNvNtCs6NFTJUEwuvu_14scyllax_macros6entity14get_field_name0B5_
FNF:7
FNH:7
DA:8,1
DA:9,1
DA:10,1
DA:11,0
DA:14,1
DA:15,1
DA:16,1
DA:17,1
DA:18,6
DA:19,1
DA:20,1
DA:21,1
DA:22,0
DA:23,0
DA:24,0
DA:25,0
DA:26,0
DA:27,0
DA:28,0
DA:29,1
DA:30,1
DA:31,1
DA:32,1
DA:35,1
DA:36,1
DA:37,1
DA:38,1
DA:39,1
DA:40,1
DA:41,1
DA:42,1
DA:43,1
DA:44,1
DA:45,1
DA:46,1
DA:47,1
DA:48,1
DA:49,1
DA:50,1
DA:51,1
DA:52,1
DA:58,9
DA:59,14
DA:60,9
DA:61,2
DA:62,2
DA:63,2
DA:64,2
DA:65,0
DA:66,0
DA:67,7
DA:69,7
DA:70,7
DA:71,7
DA:72,7
DA:73,7
DA:74,9
BRF:0
BRH:0
LF:61
LH:51
end_of_record
SF:/Users/carter/code/truffle/scyllax/scyllax-macros/src/lib.rs
FN:24,_RNvCskthA8rZP1pE_14scyllax_macros12select_query
FN:46,_RNvCskthA8rZP1pE_14scyllax_macros13entity_derive
FN:8,_RNvCskthA8rZP1pE_14scyllax_macros23token_stream_with_error
FN:40,_RNvCskthA8rZP1pE_14scyllax_macros12upsert_query
FN:24,_RNvCs6NFTJUEwuvu_14scyllax_macros12select_query
FN:8,_RNvCs6NFTJUEwuvu_14scyllax_macros23token_stream_with_error
FN:46,_RNvCs6NFTJUEwuvu_14scyllax_macros13entity_derive
FN:40,_RNvCs6NFTJUEwuvu_14scyllax_macros12upsert_query
FNDA:2,_RNvCskthA8rZP1pE_14scyllax_macros12select_query
FNDA:1,_RNvCskthA8rZP1pE_14scyllax_macros13entity_derive
FNDA:0,_RNvCskthA8rZP1pE_14scyllax_macros23token_stream_with_error
FNDA:1,_RNvCskthA8rZP1pE_14scyllax_macros12upsert_query
FNDA:0,_RNvCs6NFTJUEwuvu_14scyllax_macros12select_query
FNDA:0,_RNvCs6NFTJUEwuvu_14scyllax_macros23token_stream_with_error
FNDA:0,_RNvCs6NFTJUEwuvu_14scyllax_macros13entity_derive
FNDA:0,_RNvCs6NFTJUEwuvu_14scyllax_macros12upsert_query
FNF:4
FNH:3
DA:8,0
DA:9,0
DA:10,0
DA:11,0
DA:24,2
DA:25,2
DA:26,2
DA:40,1
DA:41,1
DA:42,1
DA:46,1
DA:47,1
DA:48,1
BRF:0
BRH:0
LF:13
LH:9
end_of_record
SF:/Users/carter/code/truffle/scyllax/scyllax-macros/src/queries/select.rs
FN:11,_RNCNvXNtNtCskthA8rZP1pE_14scyllax_macros7queries6selectNtB4_18SelectQueryOptionsNtNtCsdWOwT8HCaNc_12darling_core9from_meta8FromMeta9from_lists_0B8_
FN:10,_RNCNvXNtNtCskthA8rZP1pE_14scyllax_macros7queries6selectNtB4_18SelectQueryOptionsNtNtCsdWOwT8HCaNc_12darling_core9from_meta8FromMeta9from_list0B8_
FN:8,_RNvXNtNtCskthA8rZP1pE_14scyllax_macros7queries6selectNtB2_18SelectQueryOptionsNtNtCsdWOwT8HCaNc_12darling_core9from_meta8FromMeta9from_list
FN:14,_RNvNtNtCskthA8rZP1pE_14scyllax_macros7queries6select6expand
FN:14,_RNvNtNtCs6NFTJUEwuvu_14scyllax_macros7queries6select6expand
FN:11,_RNCNvXNtNtCs6NFTJUEwuvu_14scyllax_macros7queries6selectNtB4_18SelectQueryOptionsNtNtCsdWOwT8HCaNc_12darling_core9from_meta8FromMeta9from_lists_0B8_
FN:8,_RNvXNtNtCs6NFTJUEwuvu_14scyllax_macros7queries6selectNtB2_18SelectQueryOptionsNtNtCsdWOwT8HCaNc_12darling_core9from_meta8FromMeta9from_list
FN:10,_RNCNvXNtNtCs6NFTJUEwuvu_14scyllax_macros7queries6selectNtB4_18SelectQueryOptionsNtNtCsdWOwT8HCaNc_12darling_core9from_meta8FromMeta9from_list0B8_
FNDA:0,_RNCNvXNtNtCskthA8rZP1pE_14scyllax_macros7queries6selectNtB4_18SelectQueryOptionsNtNtCsdWOwT8HCaNc_12darling_core9from_meta8FromMeta9from_lists_0B8_
FNDA:0,_RNCNvXNtNtCskthA8rZP1pE_14scyllax_macros7queries6selectNtB4_18SelectQueryOptionsNtNtCsdWOwT8HCaNc_12darling_core9from_meta8FromMeta9from_list0B8_
FNDA:2,_RNvXNtNtCskthA8rZP1pE_14scyllax_macros7queries6selectNtB2_18SelectQueryOptionsNtNtCsdWOwT8HCaNc_12darling_core9from_meta8FromMeta9from_list
FNDA:2,_RNvNtNtCskthA8rZP1pE_14scyllax_macros7queries6select6expand
FNDA:0,_RNvNtNtCs6NFTJUEwuvu_14scyllax_macros7queries6select6expand
FNDA:0,_RNCNvXNtNtCs6NFTJUEwuvu_14scyllax_macros7queries6selectNtB4_18SelectQueryOptionsNtNtCsdWOwT8HCaNc_12darling_core9from_meta8FromMeta9from_lists_0B8_
FNDA:0,_RNvXNtNtCs6NFTJUEwuvu_14scyllax_macros7queries6selectNtB2_18SelectQueryOptionsNtNtCsdWOwT8HCaNc_12darling_core9from_meta8FromMeta9from_list
FNDA:0,_RNCNvXNtNtCs6NFTJUEwuvu_14scyllax_macros7queries6selectNtB4_18SelectQueryOptionsNtNtCsdWOwT8HCaNc_12darling_core9from_meta8FromMeta9from_list0B8_
FNF:4
FNH:2
DA:8,6
DA:10,0
DA:11,0
DA:14,2
DA:15,2
DA:16,2
DA:17,0
DA:20,2
DA:21,2
DA:22,0
DA:25,2
DA:26,2
DA:28,2
DA:29,2
DA:30,0
DA:32,2
DA:36,2
DA:37,2
DA:38,2
DA:39,2
DA:40,2
DA:41,0
DA:42,0
DA:43,0
DA:45,2
DA:46,2
DA:47,2
DA:50,0
DA:51,0
DA:52,0
DA:53,0
DA:60,2
DA:61,2
DA:62,2
DA:63,2
DA:64,2
DA:65,0
DA:66,0
DA:67,0
DA:69,2
DA:70,2
DA:71,2
DA:74,0
DA:75,0
DA:76,0
DA:77,0
DA:80,2
DA:81,2
DA:82,2
DA:83,2
DA:84,2
DA:85,2
DA:86,2
DA:87,2
DA:88,2
DA:89,2
DA:90,2
DA:91,2
DA:92,2
DA:93,2
DA:94,2
DA:95,2
DA:96,2
DA:97,2
DA:98,2
DA:99,2
DA:100,2
DA:101,2
DA:102,2
DA:103,2
DA:104,2
DA:105,2
DA:106,2
DA:107,2
DA:108,2
DA:109,2
DA:110,2
BRF:0
BRH:0
LF:77
LH:58
end_of_record
SF:/Users/carter/code/truffle/scyllax/scyllax-macros/src/queries/upsert.rs
FN:36,_RNCNCNvNtNtCskthA8rZP1pE_14scyllax_macros7queries6upsert6expand00B9_
FN:70,_RNCNvNtNtCskthA8rZP1pE_14scyllax_macros7queries6upsert11upsert_impl0B7_
FN:137,_RNCNvNtNtCskthA8rZP1pE_14scyllax_macros7queries6upsert11upsert_impls3_0B7_
FN:84,_RNCNvNtNtCskthA8rZP1pE_14scyllax_macros7queries6upsert11upsert_impls_0B7_
FN:138,_RNCNvNtNtCskthA8rZP1pE_14scyllax_macros7queries6upsert11upsert_impls4_0B7_
FN:85,_RNCNvNtNtCskthA8rZP1pE_14scyllax_macros7queries6upsert11upsert_impls0_0B7_
FN:10,_RNCNvXNtNtCskthA8rZP1pE_14scyllax_macros7queries6upsertNtB4_18UpsertQueryOptionsNtNtCsdWOwT8HCaNc_12darling_core9from_meta8FromMeta9from_list0B8_
FN:114,_RNCNvNtNtCskthA8rZP1pE_14scyllax_macros7queries6upsert11upsert_impls1_0B7_
FN:11,_RNCNvXNtNtCskthA8rZP1pE_14scyllax_macros7queries6upsertNtB4_18UpsertQueryOptionsNtNtCsdWOwT8HCaNc_12darling_core9from_meta8FromMeta9from_lists_0B8_
FN:115,_RNCNvNtNtCskthA8rZP1pE_14scyllax_macros7queries6upsert11upsert_impls2_0B7_
FN:36,_RNCNvNtNtCskthA8rZP1pE_14scyllax_macros7queries6upsert6expand0B7_
FN:8,_RNvXNtNtCskthA8rZP1pE_14scyllax_macros7queries6upsertNtB2_18UpsertQueryOptionsNtNtCsdWOwT8HCaNc_12darling_core9from_meta8FromMeta9from_list
FN:16,_RNvNtNtCskthA8rZP1pE_14scyllax_macros7queries6upsert6expand
FN:196,_RNvNtNtCskthA8rZP1pE_14scyllax_macros7queries6upsert16error_switchback
FN:54,_RNvNtNtCskthA8rZP1pE_14scyllax_macros7queries6upsert11upsert_impl
FN:70,_RNCNvNtNtCs6NFTJUEwuvu_14scyllax_macros7queries6upsert11upsert_impl0B7_
FN:138,_RNCNvNtNtCs6NFTJUEwuvu_14scyllax_macros7queries6upsert11upsert_impls4_0B7_
FN:85,_RNCNvNtNtCs6NFTJUEwuvu_14scyllax_macros7queries6upsert11upsert_impls0_0B7_
FN:36,_RNCNCNvNtNtCs6NFTJUEwuvu_14scyllax_macros7queries6upsert6expand00B9_
FN:11,_RNCNvXNtNtCs6NFTJUEwuvu_14scyllax_macros7queries6upsertNtB4_18UpsertQueryOptionsNtNtCsdWOwT8HCaNc_12darling_core9from_meta8FromMeta9from_lists_0B8_
FN:137,_RNCNvNtNtCs6NFTJUEwuvu_14scyllax_macros7queries6upsert11upsert_impls3_0B7_
FN:84,_RNCNvNtNtCs6NFTJUEwuvu_14scyllax_macros7queries6upsert11upsert_impls_0B7_
FN:8,_RNvXNtNtCs6NFTJUEwuvu_14scyllax_macros7queries6upsertNtB2_18UpsertQueryOptionsNtNtCsdWOwT8HCaNc_12darling_core9from_meta8FromMeta9from_list
FN:10,_RNCNvXNtNtCs6NFTJUEwuvu_14scyllax_macros7queries6upsertNtB4_18UpsertQueryOptionsNtNtCsdWOwT8HCaNc_12darling_core9from_meta8FromMeta9from_list0B8_
FN:115,_RNCNvNtNtCs6NFTJUEwuvu_14scyllax_macros7queries6upsert11upsert_impls2_0B7_
FN:16,_RNvNtNtCs6NFTJUEwuvu_14scyllax_macros7queries6upsert6expand
FN:54,_RNvNtNtCs6NFTJUEwuvu_14scyllax_macros7queries6upsert11upsert_impl
FN:196,_RNvNtNtCs6NFTJUEwuvu_14scyllax_macros7queries6upsert16error_switchback
FN:36,_RNCNvNtNtCs6NFTJUEwuvu_14scyllax_macros7queries6upsert6expand0B7_
FN:114,_RNCNvNtNtCs6NFTJUEwuvu_14scyllax_macros7queries6upsert11upsert_impls1_0B7_
FNDA:6,_RNCNCNvNtNtCskthA8rZP1pE_14scyllax_macros7queries6upsert6expand00B9_
FNDA:1,_RNCNvNtNtCskthA8rZP1pE_14scyllax_macros7queries6upsert11upsert_impl0B7_
FNDA:4,_RNCNvNtNtCskthA8rZP1pE_14scyllax_macros7queries6upsert11upsert_impls3_0B7_
FNDA:4,_RNCNvNtNtCskthA8rZP1pE_14scyllax_macros7queries6upsert11upsert_impls_0B7_
FNDA:1,_RNCNvNtNtCskthA8rZP1pE_14scyllax_macros7queries6upsert11upsert_impls4_0B7_
FNDA:3,_RNCNvNtNtCskthA8rZP1pE_14scyllax_macros7queries6upsert11upsert_impls0_0B7_
FNDA:0,_RNCNvXNtNtCskthA8rZP1pE_14scyllax_macros7queries6upsertNtB4_18UpsertQueryOptionsNtNtCsdWOwT8HCaNc_12darling_core9from_meta8FromMeta9from_list0B8_
FNDA:4,_RNCNvNtNtCskthA8rZP1pE_14scyllax_macros7queries6upsert11upsert_impls1_0B7_
FNDA:0,_RNCNvXNtNtCskthA8rZP1pE_14scyllax_macros7queries6upsertNtB4_18UpsertQueryOptionsNtNtCsdWOwT8HCaNc_12darling_core9from_meta8FromMeta9from_lists_0B8_
FNDA:3,_RNCNvNtNtCskthA8rZP1pE_14scyllax_macros7queries6upsert11upsert_impls2_0B7_
FNDA:4,_RNCNvNtNtCskthA8rZP1pE_14scyllax_macros7queries6upsert6expand0B7_
FNDA:1,_RNvXNtNtCskthA8rZP1pE_14scyllax_macros7queries6upsertNtB2_18UpsertQueryOptionsNtNtCsdWOwT8HCaNc_12darling_core9from_meta8FromMeta9from_list
FNDA:1,_RNvNtNtCskthA8rZP1pE_14scyllax_macros7queries6upsert6expand
FNDA:4,_RNvNtNtCskthA8rZP1pE_14scyllax_macros7queries6upsert16error_switchback
FNDA:1,_RNvNtNtCskthA8rZP1pE_14scyllax_macros7queries6upsert11upsert_impl
FNDA:0,_RNCNvNtNtCs6NFTJUEwuvu_14scyllax_macros7queries6upsert11upsert_impl0B7_
FNDA:0,_RNCNvNtNtCs6NFTJUEwuvu_14scyllax_macros7queries6upsert11upsert_impls4_0B7_
FNDA:0,_RNCNvNtNtCs6NFTJUEwuvu_14scyllax_macros7queries6upsert11upsert_impls0_0B7_
FNDA:0,_RNCNCNvNtNtCs6NFTJUEwuvu_14scyllax_macros7queries6upsert6expand00B9_
FNDA:0,_RNCNvXNtNtCs6NFTJUEwuvu_14scyllax_macros7queries6upsertNtB4_18UpsertQueryOptionsNtNtCsdWOwT8HCaNc_12darling_core9from_meta8FromMeta9from_lists_0B8_
FNDA:0,_RNCNvNtNtCs6NFTJUEwuvu_14scyllax_macros7queries6upsert11upsert_impls3_0B7_
FNDA:0,_RNCNvNtNtCs6NFTJUEwuvu_14scyllax_macros7queries6upsert11upsert_impls_0B7_
FNDA:0,_RNvXNtNtCs6NFTJUEwuvu_14scyllax_macros7queries6upsertNtB2_18UpsertQueryOptionsNtNtCsdWOwT8HCaNc_12darling_core9from_meta8FromMeta9from_list
FNDA:0,_RNCNvXNtNtCs6NFTJUEwuvu_14scyllax_macros7queries6upsertNtB4_18UpsertQueryOptionsNtNtCsdWOwT8HCaNc_12darling_core9from_meta8FromMeta9from_list0B8_
FNDA:0,_RNCNvNtNtCs6NFTJUEwuvu_14scyllax_macros7queries6upsert11upsert_impls2_0B7_
FNDA:0,_RNvNtNtCs6NFTJUEwuvu_14scyllax_macros7queries6upsert6expand
FNDA:0,_RNvNtNtCs6NFTJUEwuvu_14scyllax_macros7queries6upsert11upsert_impl
FNDA:0,_RNvNtNtCs6NFTJUEwuvu_14scyllax_macros7queries6upsert16error_switchback
FNDA:0,_RNCNvNtNtCs6NFTJUEwuvu_14scyllax_macros7queries6upsert6expand0B7_
FNDA:0,_RNCNvNtNtCs6NFTJUEwuvu_14scyllax_macros7queries6upsert11upsert_impls1_0B7_
FNF:15
FNH:13
DA:8,3
DA:10,0
DA:11,0
DA:16,1
DA:17,1
DA:18,1
DA:19,0
DA:22,1
DA:23,1
DA:24,0
DA:27,1
DA:28,1
DA:29,0
DA:32,1
DA:33,1
DA:34,1
DA:35,1
DA:36,6
DA:37,1
DA:38,1
DA:39,1
DA:40,0
DA:41,0
DA:42,0
DA:43,0
DA:44,0
DA:45,0
DA:46,0
DA:47,1
DA:48,1
DA:49,1
DA:50,1
DA:54,1
DA:55,1
DA:56,1
DA:57,1
DA:58,1
DA:59,1
DA:60,1
DA:61,1
DA:63,1
DA:64,1
DA:65,0
DA:68,1
DA:69,1
DA:70,1
DA:71,1
DA:72,1
DA:73,1
DA:74,1
DA:75,1
DA:76,1
DA:77,1
DA:78,1
DA:79,1
DA:80,1
DA:81,1
DA:82,1
DA:83,1
DA:84,4
DA:85,3
DA:86,3
DA:87,3
DA:88,3
DA:89,3
DA:90,3
DA:91,3
DA:92,3
DA:93,3
DA:94,3
DA:95,1
DA:96,1
DA:97,1
DA:98,1
DA:99,1
DA:100,1
DA:101,1
DA:102,1
DA:103,1
DA:104,1
DA:105,1
DA:106,1
DA:107,1
DA:108,1
DA:111,1
DA:112,1
DA:113,1
DA:114,4
DA:115,3
DA:116,3
DA:117,3
DA:118,3
DA:119,3
DA:120,3
DA:121,3
DA:122,3
DA:123,3
DA:124,3
DA:125,3
DA:126,3
DA:127,3
DA:128,3
DA:129,3
DA:130,3
DA:131,3
DA:132,1
DA:133,1
DA:134,1
DA:135,1
DA:136,1
DA:137,4
DA:138,1
DA:139,1
DA:140,1
DA:141,1
DA:142,1
DA:143,1
DA:144,1
DA:145,1
DA:146,1
DA:147,1
DA:148,1
DA:149,1
DA:150,1
DA:151,1
DA:152,1
DA:153,1
DA:154,1
DA:155,1
DA:156,1
DA:157,1
DA:158,1
DA:159,1
DA:160,1
DA:161,1
DA:162,1
DA:163,1
DA:164,1
DA:165,1
DA:166,1
DA:167,1
DA:168,1
DA:169,1
DA:170,1
DA:171,1
DA:172,1
DA:173,1
DA:174,1
DA:175,1
DA:176,1
DA:177,1
DA:178,1
DA:179,1
DA:180,1
DA:181,1
DA:182,1
DA:183,1
DA:184,1
DA:185,1
DA:186,1
DA:187,1
DA:188,1
DA:189,1
DA:190,1
DA:191,1
DA:192,1
DA:193,1
DA:194,1
DA:196,4
DA:197,4
DA:198,4
DA:199,4
DA:200,4
DA:201,4
DA:202,4
DA:203,4
DA:204,4
DA:205,4
DA:206,4
DA:207,4
DA:208,4
DA:209,4
DA:210,4
DA:211,4
DA:212,4
DA:213,4
DA:214,4
DA:215,4
DA:216,4
DA:217,4
DA:218,4
DA:219,4
BRF:0
BRH:0
LF:205
LH:192
end_of_record
SF:/Users/carter/code/truffle/scyllax/scyllax/src/error.rs
FN:4,_RNvXs0_NtCsdgGcu8PUJdx_7scyllax5errorNtB5_12ScyllaxErrorINtNtCs98dpJn7v43e_4core7convert4FromNtNtCs1vFd3eqb2Fl_10scylla_cql6errors10QueryErrorE4from
FN:4,_RNvXs3_NtCsdgGcu8PUJdx_7scyllax5errorNtB5_12ScyllaxErrorNtNtCs98dpJn7v43e_4core3fmt5Debug3fmt
FN:4,_RNvXs1_NtCsdgGcu8PUJdx_7scyllax5errorNtB5_12ScyllaxErrorINtNtCs98dpJn7v43e_4core7convert4FromNtNtNtCs7rPgljGb4vo_6scylla9transport12query_result19SingleRowTypedErrorE4from
FN:4,_RNvXNtCsdgGcu8PUJdx_7scyllax5errorNtB2_12ScyllaxErrorNtNtCs98dpJn7v43e_4core5error5Error6source
FN:4,_RNvXs2_NtCsdgGcu8PUJdx_7scyllax5errorNtB5_12ScyllaxErrorINtNtCs98dpJn7v43e_4core7convert4FromNtB5_21BuildUpsertQueryErrorE4from
FN:24,_RNvXs6_NtCsdgGcu8PUJdx_7scyllax5errorNtB5_21BuildUpsertQueryErrorNtNtCs98dpJn7v43e_4core3fmt5Debug3fmt
FN:24,_RNvXs5_NtCsdgGcu8PUJdx_7scyllax5errorNtB5_21BuildUpsertQueryErrorNtNtCs98dpJn7v43e_4core3fmt7Display3fmt
FN:4,_RNvXs_NtCsdgGcu8PUJdx_7scyllax5errorNtB4_12ScyllaxErrorNtNtCs98dpJn7v43e_4core3fmt7Display3fmt
FNDA:0,_RNvXs0_NtCsdgGcu8PUJdx_7scyllax5errorNtB5_12ScyllaxErrorINtNtCs98dpJn7v43e_4core7convert4FromNtNtCs1vFd3eqb2Fl_10scylla_cql6errors10QueryErrorE4from
FNDA:0,_RNvXs3_NtCsdgGcu8PUJdx_7scyllax5errorNtB5_12ScyllaxErrorNtNtCs98dpJn7v43e_4core3fmt5Debug3fmt
FNDA:0,_RNvXs1_NtCsdgGcu8PUJdx_7scyllax5errorNtB5_12ScyllaxErrorINtNtCs98dpJn7v43e_4core7convert4FromNtNtNtCs7rPgljGb4vo_6scylla9transport12query_result19SingleRowTypedErrorE4from
FNDA:0,_RNvXNtCsdgGcu8PUJdx_7scyllax5errorNtB2_12ScyllaxErrorNtNtCs98dpJn7v43e_4core5error5Error6source
FNDA:0,_RNvXs2_NtCsdgGcu8PUJdx_7scyllax5errorNtB5_12ScyllaxErrorINtNtCs98dpJn7v43e_4core7convert4FromNtB5_21BuildUpsertQueryErrorE4from
FNDA:0,_RNvXs6_NtCsdgGcu8PUJdx_7scyllax5errorNtB5_21BuildUpsertQueryErrorNtNtCs98dpJn7v43e_4core3fmt5Debug3fmt
FNDA:0,_RNvXs5_NtCsdgGcu8PUJdx_7scyllax5errorNtB5_21BuildUpsertQueryErrorNtNtCs98dpJn7v43e_4core3fmt7Display3fmt
FNDA:0,_RNvXs_NtCsdgGcu8PUJdx_7scyllax5errorNtB4_12ScyllaxErrorNtNtCs98dpJn7v43e_4core3fmt7Display3fmt
FNF:4
FNH:0
DA:4,0
DA:24,0
BRF:0
BRH:0
LF:4
LH:0
end_of_record
SF:/Users/carter/code/truffle/scyllax/scyllax/src/executor.rs
FN:10,_RINvNtCsdgGcu8PUJdx_7scyllax8executor14create_sessionpppEB4_
FN:57,_RNCINvMNtCsdgGcu8PUJdx_7scyllax8executorNtB5_8Executor14execute_selectpppE0B7_
FN:66,_RNCINvMNtCsdgGcu8PUJdx_7scyllax8executorNtB5_8Executor14execute_upsertppE0B7_
FN:62,_RINvMNtCsdgGcu8PUJdx_7scyllax8executorNtB3_8Executor14execute_upsertppEB5_
FN:49,_RINvMNtCsdgGcu8PUJdx_7scyllax8executorNtB3_8Executor14execute_selectpppEB5_
FN:14,_RNCINvNtCsdgGcu8PUJdx_7scyllax8executor14create_sessionpppE0B6_
FN:37,_RNvMNtCsdgGcu8PUJdx_7scyllax8executorNtB2_8Executor12with_session
FN:43,_RNCNvMNtCsdgGcu8PUJdx_7scyllax8executorNtB4_8Executor13prepare_query0B6_
FN:42,_RNvMNtCsdgGcu8PUJdx_7scyllax8executorNtB2_8Executor13prepare_query
FNDA:0,_RINvNtCsdgGcu8PUJdx_7scyllax8executor14create_sessionpppEB4_
FNDA:0,_RNCINvMNtCsdgGcu8PUJdx_7scyllax8executorNtB5_8Executor14execute_selectpppE0B7_
FNDA:0,_RNCINvMNtCsdgGcu8PUJdx_7scyllax8executorNtB5_8Executor14execute_upsertppE0B7_
FNDA:0,_RINvMNtCsdgGcu8PUJdx_7scyllax8executorNtB3_8Executor14execute_upsertppEB5_
FNDA:0,_RINvMNtCsdgGcu8PUJdx_7scyllax8executorNtB3_8Executor14execute_selectpppEB5_
FNDA:0,_RNCINvNtCsdgGcu8PUJdx_7scyllax8executor14create_sessionpppE0B6_
FNDA:0,_RNvMNtCsdgGcu8PUJdx_7scyllax8executorNtB2_8Executor12with_session
FNDA:0,_RNCNvMNtCsdgGcu8PUJdx_7scyllax8executorNtB4_8Executor13prepare_query0B6_
FNDA:0,_RNvMNtCsdgGcu8PUJdx_7scyllax8executorNtB2_8Executor13prepare_query
FNF:9
FNH:0
DA:10,0
DA:11,0
DA:12,0
DA:13,0
DA:14,0
DA:15,0
DA:16,0
DA:17,0
DA:18,0
DA:22,0
DA:23,0
DA:24,0
DA:26,0
DA:27,0
DA:37,0
DA:38,0
DA:39,0
DA:42,0
DA:43,0
DA:44,0
DA:45,0
DA:46,0
DA:49,0
DA:50,0
DA:51,0
DA:52,0
DA:53,0
DA:54,0
DA:55,0
DA:56,0
DA:57,0
DA:58,0
DA:59,0
DA:62,0
DA:63,0
DA:64,0
DA:65,0
DA:66,0
DA:68,0
DA:69,0
BRF:0
BRH:0
LF:40
LH:0
end_of_record
SF:/Users/carter/code/truffle/scyllax/scyllax/src/maybe_unset.rs
FN:8,_RNvXININtCsdgGcu8PUJdx_7scyllax11maybe_unsets_0pEINtB5_10MaybeUnsetpENtNtCs98dpJn7v43e_4core5clone5Clone5cloneB7_
FN:8,_RNvXININtCsdgGcu8PUJdx_7scyllax11maybe_unsets1_0pEINtB5_10MaybeUnsetpENtNtCs98dpJn7v43e_4core3fmt5Debug3fmtB7_
FN:17,_RNvXININtCsdgGcu8PUJdx_7scyllax11maybe_unset0pEINtB5_10MaybeUnsetpENtNtNtCs1vFd3eqb2Fl_10scylla_cql5frame5value5Value9serializeB7_
FNDA:0,_RNvXININtCsdgGcu8PUJdx_7scyllax11maybe_unsets_0pEINtB5_10MaybeUnsetpENtNtCs98dpJn7v43e_4core5clone5Clone5cloneB7_
FNDA:0,_RNvXININtCsdgGcu8PUJdx_7scyllax11maybe_unsets1_0pEINtB5_10MaybeUnsetpENtNtCs98dpJn7v43e_4core3fmt5Debug3fmtB7_
FNDA:0,_RNvXININtCsdgGcu8PUJdx_7scyllax11maybe_unset0pEINtB5_10MaybeUnsetpENtNtNtCs1vFd3eqb2Fl_10scylla_cql5frame5value5Value9serializeB7_
FNF:3
FNH:0
DA:8,0
DA:17,0
DA:18,0
DA:19,0
DA:20,0
DA:22,0
BRF:0
BRH:0
LF:7
LH:0
end_of_record
SF:/Users/carter/code/truffle/scyllax/scyllax/src/util.rs
FN:26,_RNCNvNtNtCsdgGcu8PUJdx_7scyllax4util5tests12test_v1_uuid0B7_
FN:6,_RNvNtCsdgGcu8PUJdx_7scyllax4util7v1_uuid
FN:12,_RNvNtCsdgGcu8PUJdx_7scyllax4util15get_mac_address
FN:27,_RNvNtNtCsdgGcu8PUJdx_7scyllax4util5testss_12test_v1_uuid
FNDA:1,_RNCNvNtNtCsdgGcu8PUJdx_7scyllax4util5tests12test_v1_uuid0B7_
FNDA:1,_RNvNtCsdgGcu8PUJdx_7scyllax4util7v1_uuid
FNDA:1,_RNvNtCsdgGcu8PUJdx_7scyllax4util15get_mac_address
FNDA:1,_RNvNtNtCsdgGcu8PUJdx_7scyllax4util5testss_12test_v1_uuid
FNF:4
FNH:4
DA:6,1
DA:7,1
DA:8,1
DA:9,1
DA:12,1
DA:13,1
DA:15,0
DA:16,0
DA:17,0
DA:18,0
DA:20,1
DA:26,1
DA:27,1
DA:28,1
DA:29,1
DA:30,1
DA:31,1
DA:32,1
BRF:0
BRH:0
LF:18
LH:14
end_of_record
